target datalayout = "e-m:e-p270:32:32-p271:32:32-p272:64:64-i64:64-i128:128-f80:128-n8:16:32:64-S128"
target triple = "x86_64-pc-linux-gnu"

%struct.buffer_s = type { ptr, i64 }
%struct.Range = type { ptr, i64 }
%struct.RoundBuff_t = type { ptr, i64, i64 }
%struct.ZSTD_customMem = type { ptr, ptr, ptr }
%struct.ZSTDMT_CCtx_s = type { ptr, ptr, ptr, ptr, ptr, %struct.ZSTD_CCtx_params_s, i64, i64, i32, %struct.InBuff_t, %struct.RoundBuff_t, %struct.SerialState, %struct.RSyncState_t, i32, i32, i32, i32, i32, i64, i64, i64, %struct.ZSTD_customMem, ptr, ptr, i8 }
%struct.ZSTD_CCtx_params_s = type { i32, %struct.ZSTD_compressionParameters, %struct.ZSTD_frameParameters, i32, i32, i64, i32, i32, i32, i32, i64, i32, i32, %struct.ldmParams_t, i32, i32, i32, i32, i32, i32, i32, i64, i32, i32, %struct.ZSTD_customMem, i32, i32, ptr, ptr, i32 }
%struct.ZSTD_compressionParameters = type { i32, i32, i32, i32, i32, i32, i32 }
%struct.ZSTD_frameParameters = type { i32, i32, i32 }
%struct.ldmParams_t = type { i32, i32, i32, i32, i32, i32 }
%struct.InBuff_t = type { %struct.Range, %struct.buffer_s, i64 }
%struct.SerialState = type { %union.pthread_mutex_t, %union.pthread_cond_t, %struct.ZSTD_CCtx_params_s, %struct.ldmState_t, %struct.XXH64_state_s, i32, %union.pthread_mutex_t, %union.pthread_cond_t, %struct.ZSTD_window_t }
%struct.ldmState_t = type { %struct.ZSTD_window_t, ptr, i32, ptr, [64 x i64], [64 x %struct.ldmMatchCandidate_t] }
%struct.ldmMatchCandidate_t = type { ptr, i32, i32, ptr }
%struct.XXH64_state_s = type { i64, [4 x i64], [4 x i64], i32, i32, i64 }
%union.pthread_mutex_t = type { %struct.__pthread_mutex_s }
%struct.__pthread_mutex_s = type { i32, i32, i32, i32, i32, i16, i16, %struct.__pthread_internal_list }
%struct.__pthread_internal_list = type { ptr, ptr }
%union.pthread_cond_t = type { %struct.__pthread_cond_s }
%struct.__pthread_cond_s = type { %union.__atomic_wide_counter, %union.__atomic_wide_counter, [2 x i32], [2 x i32], i32, i32, [2 x i32] }
%union.__atomic_wide_counter = type { i64 }
%struct.ZSTD_window_t = type { ptr, ptr, ptr, i32, i32, i32 }
%struct.RSyncState_t = type { i64, i64, i64 }

; Function Attrs: nounwind uwtable
define i64 @ZSTDMT_nextInputSizeHint(ptr noundef %0) #0 {
  %2 = alloca ptr, align 8
  %3 = alloca i64, align 8
  store ptr %0, ptr %2, align 8, !tbaa !13
  call void @llvm.lifetime.start.p0(i64 8, ptr %3) #11
  %4 = load ptr, ptr %2, align 8, !tbaa !13
  %5 = getelementptr inbounds nuw %struct.ZSTDMT_CCtx_s, ptr %4, i32 0, i32 6
  %6 = load i64, ptr %5, align 8, !tbaa !111
  %7 = load ptr, ptr %2, align 8, !tbaa !13
  %8 = getelementptr inbounds nuw %struct.ZSTDMT_CCtx_s, ptr %7, i32 0, i32 9
  %9 = getelementptr inbounds nuw %struct.InBuff_t, ptr %8, i32 0, i32 2
  %10 = load i64, ptr %9, align 8, !tbaa !54
  %11 = sub i64 %6, %10
  store i64 %11, ptr %3, align 8, !tbaa !45
  %12 = load i64, ptr %3, align 8, !tbaa !45
  %13 = icmp eq i64 %12, 0
  br i1 %13, label %14, label %18

14:                                               ; preds = %1
  %15 = load ptr, ptr %2, align 8, !tbaa !13
  %16 = getelementptr inbounds nuw %struct.ZSTDMT_CCtx_s, ptr %15, i32 0, i32 6
  %17 = load i64, ptr %16, align 8, !tbaa !111
  store i64 %17, ptr %3, align 8, !tbaa !45
  br label %18

18:                                               ; preds = %14, %1
  %19 = load i64, ptr %3, align 8, !tbaa !45
  call void @llvm.lifetime.end.p0(i64 8, ptr %3) #11
  ret i64 %19
}