; Function Attrs: mustprogress nofree norecurse nosync nounwind willreturn memory(argmem: read) uwtable
define i64 @ZSTDMT_nextInputSizeHint(ptr noundef readonly captures(none) %0) local_unnamed_addr #5 {
  %2 = getelementptr inbounds nuw i8, ptr %0, i64 264
  %3 = load i64, ptr %2, align 8, !tbaa !103
  %4 = getelementptr inbounds nuw i8, ptr %0, i64 320
  %5 = load i64, ptr %4, align 8, !tbaa !76
  %6 = icmp eq i64 %3, %5
  %7 = select i1 %6, i64 0, i64 %5
  %spec.select = sub i64 %3, %7
  ret i64 %spec.select
}